target datalayout = "e-m:e-p270:32:32-p271:32:32-p272:64:64-i64:64-i128:128-f80:128-n8:16:32:64-S128"
target triple = "x86_64-pc-linux-gnu"

%struct.NSVGparser = type { [128 x %struct.NSVGattrib], i32, ptr, i32, i32, ptr, ptr, ptr, ptr, float, float, float, float, i32, i32, i32, float, i8, i8 }
%struct.NSVGattrib = type { [64 x i8], [6 x float], i32, i32, float, float, float, [64 x i8], [64 x i8], float, float, [8 x float], i32, i8, i8, float, i8, float, i32, float, float, i8, i8, i8 }

@.str.15 = private unnamed_addr constant [2 x i8] c"g\00", align 1
@.str.16 = private unnamed_addr constant [5 x i8] c"path\00", align 1
@.str.23 = private unnamed_addr constant [5 x i8] c"defs\00", align 1

; Function Attrs: nounwind uwtable
define internal void @nsvg__popAttr(ptr noundef %0) #0 {
  %2 = alloca ptr, align 8
  store ptr %0, ptr %2, align 8, !tbaa !27
  %3 = load ptr, ptr %2, align 8, !tbaa !27
  %4 = getelementptr inbounds nuw %struct.NSVGparser, ptr %3, i32 0, i32 1
  %5 = load i32, ptr %4, align 8, !tbaa !216
  %6 = icmp sgt i32 %5, 0
  br i1 %6, label %7, label %12

7:                                                ; preds = %1
  %8 = load ptr, ptr %2, align 8, !tbaa !27
  %9 = getelementptr inbounds nuw %struct.NSVGparser, ptr %8, i32 0, i32 1
  %10 = load i32, ptr %9, align 8, !tbaa !216
  %11 = add nsw i32 %10, -1
  store i32 %11, ptr %9, align 8, !tbaa !216
  br label %12

12:                                               ; preds = %7, %1
  ret void
}

; Function Attrs: nounwind uwtable
define internal void @nsvg__endElement(ptr noundef %0, ptr noundef %1) #0 {
  %3 = alloca ptr, align 8
  %4 = alloca ptr, align 8
  %5 = alloca ptr, align 8
  store ptr %0, ptr %3, align 8, !tbaa !9
  store ptr %1, ptr %4, align 8, !tbaa !4
  call void @llvm.lifetime.start.p0(i64 8, ptr %5) #11
  %6 = load ptr, ptr %3, align 8, !tbaa !9
  store ptr %6, ptr %5, align 8, !tbaa !27
  %7 = load ptr, ptr %4, align 8, !tbaa !4
  %8 = call i32 @strcmp(ptr noundef %7, ptr noundef @.str.15) #13
  %9 = icmp eq i32 %8, 0
  br i1 %9, label %10, label %12

10:                                               ; preds = %2
  %11 = load ptr, ptr %5, align 8, !tbaa !27
  call void @nsvg__popAttr(ptr noundef %11)
  br label %28

12:                                               ; preds = %2
  %13 = load ptr, ptr %4, align 8, !tbaa !4
  %14 = call i32 @strcmp(ptr noundef %13, ptr noundef @.str.16) #13
  %15 = icmp eq i32 %14, 0
  br i1 %15, label %16, label %19

16:                                               ; preds = %12
  %17 = load ptr, ptr %5, align 8, !tbaa !27
  %18 = getelementptr inbounds nuw %struct.NSVGparser, ptr %17, i32 0, i32 17
  store i8 0, ptr %18, align 8, !tbaa !53
  br label %27

19:                                               ; preds = %12
  %20 = load ptr, ptr %4, align 8, !tbaa !4
  %21 = call i32 @strcmp(ptr noundef %20, ptr noundef @.str.23) #13
  %22 = icmp eq i32 %21, 0
  br i1 %22, label %23, label %26

23:                                               ; preds = %19
  %24 = load ptr, ptr %5, align 8, !tbaa !27
  %25 = getelementptr inbounds nuw %struct.NSVGparser, ptr %24, i32 0, i32 18
  store i8 0, ptr %25, align 1, !tbaa !52
  br label %26

26:                                               ; preds = %23, %19
  br label %27

27:                                               ; preds = %26, %16
  br label %28

28:                                               ; preds = %27, %10
  call void @llvm.lifetime.end.p0(i64 8, ptr %5) #11
  ret void
}