; Function Attrs: mustprogress nofree nounwind willreturn memory(argmem: readwrite) uwtable
define internal void @nsvg__endElement(ptr noundef captures(none) %0, ptr noundef readonly captures(none) %1) #2 {
sub_0:
  %2 = load i8, ptr %1, align 1
  %.not = icmp eq i8 %2, 103
  br i1 %.not, label %.tail, label %.tail.thread

.tail:                                            ; preds = %sub_0
  %3 = getelementptr inbounds nuw i8, ptr %1, i64 1
  %4 = load i8, ptr %3, align 1
  %5 = icmp eq i8 %4, 0
  br i1 %5, label %6, label %.tail.thread

6:                                                ; preds = %.tail
  %7 = getelementptr inbounds nuw i8, ptr %0, i64 39936
  %8 = load i32, ptr %7, align 8, !tbaa !55
  %9 = icmp sgt i32 %8, 0
  br i1 %9, label %10, label %nsvg__popAttr.exit

10:                                               ; preds = %6
  %11 = add nsw i32 %8, -1
  store i32 %11, ptr %7, align 8, !tbaa !55
  br label %nsvg__popAttr.exit

.tail.thread:                                     ; preds = %sub_0, %.tail
  %12 = tail call i32 @strcmp(ptr noundef nonnull dereferenceable(1) %1, ptr noundef nonnull dereferenceable(5) @.str.16) #32
  %13 = icmp eq i32 %12, 0
  br i1 %13, label %14, label %16

14:                                               ; preds = %.tail.thread
  %15 = getelementptr inbounds nuw i8, ptr %0, i64 40024
  store i8 0, ptr %15, align 8, !tbaa !82
  br label %nsvg__popAttr.exit

16:                                               ; preds = %.tail.thread
  %17 = tail call i32 @strcmp(ptr noundef nonnull dereferenceable(1) %1, ptr noundef nonnull dereferenceable(5) @.str.23) #32
  %18 = icmp eq i32 %17, 0
  br i1 %18, label %19, label %nsvg__popAttr.exit

19:                                               ; preds = %16
  %20 = getelementptr inbounds nuw i8, ptr %0, i64 40025
  store i8 0, ptr %20, align 1, !tbaa !81
  br label %nsvg__popAttr.exit

nsvg__popAttr.exit:                               ; preds = %10, %6, %14, %19, %16
  ret void
}